; Function Attrs: nounwind uwtable
define noalias noundef ptr @Rnm_ManStart(ptr noundef %0) local_unnamed_addr #0 {
  %2 = tail call noalias dereferenceable_or_null(128) ptr @calloc(i64 noundef 1, i64 noundef 128) #20
  store ptr %0, ptr %2, align 8, !tbaa !3
  %3 = tail call noalias dereferenceable_or_null(16) ptr @malloc(i64 noundef 16) #21
  %4 = getelementptr inbounds nuw i8, ptr %3, i64 4
  store i32 0, ptr %4, align 4, !tbaa !15
  store i32 100, ptr %3, align 8, !tbaa !18
  %5 = tail call noalias dereferenceable_or_null(400) ptr @malloc(i64 noundef 400) #21
  %6 = getelementptr inbounds nuw i8, ptr %3, i64 8
  store ptr %5, ptr %6, align 8, !tbaa !19
  %7 = getelementptr inbounds nuw i8, ptr %2, i64 40
  store ptr %3, ptr %7, align 8, !tbaa !20
  %8 = getelementptr i8, ptr %0, i64 24
  %.val = load i32, ptr %8, align 8, !tbaa !21
  %9 = tail call noalias dereferenceable_or_null(16) ptr @malloc(i64 noundef 16) #21
  %10 = add i32 %.val, -1
  %or.cond.i.i = icmp ult i32 %10, 15
  %spec.store.select.i.i = select i1 %or.cond.i.i, i32 16, i32 %.val
  store i32 %spec.store.select.i.i, ptr %9, align 8, !tbaa !35
  %.not.i.i = icmp eq i32 %spec.store.select.i.i, 0
  br i1 %.not.i.i, label %Vec_StrStart.exit, label %11

11:                                               ; preds = %1
  %12 = sext i32 %spec.store.select.i.i to i64
  %13 = tail call noalias ptr @malloc(i64 noundef %12) #21
  br label %Vec_StrStart.exit

Vec_StrStart.exit:                                ; preds = %1, %11
  %14 = phi ptr [ %13, %11 ], [ null, %1 ]
  %15 = getelementptr inbounds nuw i8, ptr %9, i64 4
  %16 = getelementptr inbounds nuw i8, ptr %9, i64 8
  store ptr %14, ptr %16, align 8, !tbaa !37
  store i32 %.val, ptr %15, align 4, !tbaa !38
  %17 = sext i32 %.val to i64
  tail call void @llvm.memset.p0.i64(ptr align 1 %14, i8 0, i64 %17, i1 false)
  %18 = getelementptr inbounds nuw i8, ptr %2, i64 48
  store ptr %9, ptr %18, align 8, !tbaa !39
  %19 = tail call noalias dereferenceable_or_null(16) ptr @malloc(i64 noundef 16) #21
  %20 = getelementptr inbounds nuw i8, ptr %19, i64 4
  store i32 0, ptr %20, align 4, !tbaa !15
  store i32 1000, ptr %19, align 8, !tbaa !18
  %21 = tail call noalias dereferenceable_or_null(4000) ptr @malloc(i64 noundef 4000) #21
  %22 = getelementptr inbounds nuw i8, ptr %19, i64 8
  store ptr %21, ptr %22, align 8, !tbaa !19
  %23 = getelementptr inbounds nuw i8, ptr %2, i64 56
  store ptr %19, ptr %23, align 8, !tbaa !40
  %24 = getelementptr inbounds nuw i8, ptr %2, i64 76
  store i32 10000, ptr %24, align 4, !tbaa !41
  %25 = tail call noalias dereferenceable_or_null(40000) ptr @malloc(i64 noundef 40000) #21
  %26 = getelementptr inbounds nuw i8, ptr %2, i64 64
  store ptr %25, ptr %26, align 8, !tbaa !42
  %27 = getelementptr inbounds nuw i8, ptr %0, i64 256
  %28 = load ptr, ptr %27, align 8, !tbaa !43
  %29 = icmp eq ptr %28, null
  br i1 %29, label %30, label %31

30:                                               ; preds = %Vec_StrStart.exit
  tail call void @Gia_ManStaticFanoutStart(ptr noundef nonnull %0) #22
  br label %31

31:                                               ; preds = %30, %Vec_StrStart.exit
  tail call void @Gia_ManCleanValue(ptr noundef nonnull %0) #22
  tail call void @Gia_ManCleanMark0(ptr noundef nonnull %0) #22
  tail call void @Gia_ManCleanMark1(ptr noundef nonnull %0) #22
  ret ptr %2
}